target datalayout = "e-m:e-p270:32:32-p271:32:32-p272:64:64-i64:64-i128:128-f80:128-n8:16:32:64-S128"
target triple = "x86_64-pc-linux-gnu"

%struct._zval_struct = type { %union._zend_value, %union.anon, %union.anon.3 }
%union._zend_value = type { i64 }
%union.anon = type { i32 }
%union.anon.3 = type { i32 }
%struct.anon.1 = type { i8, i8, %union.anon.2 }
%union.anon.2 = type { i16 }

; Function Attrs: nounwind uwtable
define internal void @empty_partial_object(ptr noundef %0) #0 {
  %2 = alloca ptr, align 8
  store ptr %0, ptr %2, align 8
  %3 = load ptr, ptr %2, align 8
  %4 = getelementptr inbounds %struct._zval_struct, ptr %3, i32 0, i32 1
  store i32 508, ptr %4, align 8
  %5 = call ptr @_zend_new_array_0()
  %6 = load ptr, ptr %2, align 8
  %7 = getelementptr inbounds %struct._zval_struct, ptr %6, i32 0, i32 0
  store ptr %5, ptr %7, align 8
  ret void
}

; Function Attrs: nounwind uwtable
define internal i32 @join_partial_objects(ptr noundef %0, ptr noundef %1) #0 {
  %3 = alloca ptr, align 8
  %4 = alloca ptr, align 8
  %5 = alloca ptr, align 8
  %6 = alloca ptr, align 8
  %7 = alloca ptr, align 8
  %8 = alloca i32, align 4
  %9 = alloca ptr, align 8
  %10 = alloca ptr, align 8
  %11 = alloca %struct._zval_struct, align 8
  %12 = alloca ptr, align 8
  %13 = alloca ptr, align 8
  %14 = alloca ptr, align 8
  %15 = alloca i32, align 4
  store ptr %0, ptr %9, align 8
  store ptr %1, ptr %10, align 8
  %16 = load ptr, ptr %9, align 8
  store ptr %16, ptr %6, align 8
  %17 = load ptr, ptr %6, align 8
  %18 = getelementptr inbounds %struct._zval_struct, ptr %17, i32 0, i32 1
  %19 = load i8, ptr %18, align 8
  %20 = zext i8 %19 to i32
  %21 = icmp eq i32 %20, 252
  br i1 %21, label %22, label %29

22:                                               ; preds = %2
  %23 = load ptr, ptr %10, align 8
  store ptr %23, ptr %7, align 8
  %24 = load ptr, ptr %7, align 8
  %25 = getelementptr inbounds %struct._zval_struct, ptr %24, i32 0, i32 1
  %26 = load i8, ptr %25, align 8
  %27 = zext i8 %26 to i32
  %28 = icmp eq i32 %27, 252
  br i1 %28, label %30, label %29

29:                                               ; preds = %22, %2
  store i32 -1, ptr %8, align 4
  br label %84

30:                                               ; preds = %22
  call void @empty_partial_object(ptr noundef %11)
  %31 = getelementptr inbounds %struct._zval_struct, ptr %11, i32 0, i32 0
  %32 = load ptr, ptr %31, align 8
  %33 = load ptr, ptr %9, align 8
  %34 = getelementptr inbounds %struct._zval_struct, ptr %33, i32 0, i32 0
  %35 = load ptr, ptr %34, align 8
  %36 = load ptr, ptr %10, align 8
  %37 = getelementptr inbounds %struct._zval_struct, ptr %36, i32 0, i32 0
  %38 = load ptr, ptr %37, align 8
  call void @join_hash_tables(ptr noundef %32, ptr noundef %35, ptr noundef %38)
  %39 = load ptr, ptr %9, align 8
  store ptr %39, ptr %5, align 8
  %40 = load ptr, ptr %5, align 8
  %41 = getelementptr inbounds %struct._zval_struct, ptr %40, i32 0, i32 1
  %42 = getelementptr inbounds %struct.anon.1, ptr %41, i32 0, i32 1
  %43 = load i8, ptr %42, align 1
  %44 = zext i8 %43 to i32
  %45 = icmp ne i32 %44, 0
  br i1 %45, label %46, label %66

46:                                               ; preds = %30
  %47 = load ptr, ptr %5, align 8
  store ptr %47, ptr %4, align 8
  %48 = load ptr, ptr %4, align 8
  %49 = getelementptr inbounds %struct._zval_struct, ptr %48, i32 0, i32 1
  %50 = getelementptr inbounds %struct.anon.1, ptr %49, i32 0, i32 1
  %51 = load i8, ptr %50, align 1
  %52 = zext i8 %51 to i32
  %53 = icmp ne i32 %52, 0
  call void @llvm.assume(i1 %53)
  %54 = load ptr, ptr %4, align 8
  %55 = load ptr, ptr %54, align 8
  store ptr %55, ptr %3, align 8
  %56 = load ptr, ptr %3, align 8
  %57 = load i32, ptr %56, align 4
  %58 = icmp ugt i32 %57, 0
  call void @llvm.assume(i1 %58)
  %59 = load ptr, ptr %3, align 8
  %60 = load i32, ptr %59, align 4
  %61 = add i32 %60, -1
  store i32 %61, ptr %59, align 4
  %62 = icmp ne i32 %61, 0
  br i1 %62, label %66, label %63

63:                                               ; preds = %46
  %64 = load ptr, ptr %5, align 8
  %65 = load ptr, ptr %64, align 8
  call void @rc_dtor_func(ptr noundef %65) #10
  br label %66

66:                                               ; preds = %63, %46, %30
  br label %67

67:                                               ; preds = %66
  %68 = load ptr, ptr %9, align 8
  store ptr %68, ptr %12, align 8
  store ptr %11, ptr %13, align 8
  %69 = load ptr, ptr %13, align 8
  %70 = getelementptr inbounds %struct._zval_struct, ptr %69, i32 0, i32 0
  %71 = load ptr, ptr %70, align 8
  store ptr %71, ptr %14, align 8
  %72 = load ptr, ptr %13, align 8
  %73 = getelementptr inbounds %struct._zval_struct, ptr %72, i32 0, i32 1
  %74 = load i32, ptr %73, align 8
  store i32 %74, ptr %15, align 4
  br label %75

75:                                               ; preds = %67
  %76 = load ptr, ptr %14, align 8
  %77 = load ptr, ptr %12, align 8
  %78 = getelementptr inbounds %struct._zval_struct, ptr %77, i32 0, i32 0
  store ptr %76, ptr %78, align 8
  %79 = load i32, ptr %15, align 4
  %80 = load ptr, ptr %12, align 8
  %81 = getelementptr inbounds %struct._zval_struct, ptr %80, i32 0, i32 1
  store i32 %79, ptr %81, align 8
  br label %82

82:                                               ; preds = %75
  br label %83

83:                                               ; preds = %82
  store i32 0, ptr %8, align 4
  br label %84

84:                                               ; preds = %83, %29
  %85 = load i32, ptr %8, align 4
  ret i32 %85
}