; Function Attrs: nounwind uwtable
define internal fastcc noundef i32 @join_partial_objects(ptr nocapture noundef %0, ptr nocapture noundef readonly %1) unnamed_addr #0 {
  %3 = getelementptr inbounds i8, ptr %0, i64 8
  %4 = load i8, ptr %3, align 8
  %5 = icmp eq i8 %4, -4
  br i1 %5, label %6, label %24

6:                                                ; preds = %2
  %7 = getelementptr inbounds i8, ptr %1, i64 8
  %8 = load i8, ptr %7, align 8
  %9 = icmp eq i8 %8, -4
  br i1 %9, label %10, label %24

10:                                               ; preds = %6
  %11 = tail call ptr @_zend_new_array_0() #13
  %12 = load ptr, ptr %0, align 8
  %13 = load ptr, ptr %1, align 8
  tail call fastcc void @join_hash_tables(ptr noundef %11, ptr noundef %12, ptr noundef %13)
  %14 = getelementptr inbounds i8, ptr %0, i64 9
  %15 = load i8, ptr %14, align 1
  %.not = icmp eq i8 %15, 0
  br i1 %.not, label %23, label %16

16:                                               ; preds = %10
  %17 = load ptr, ptr %0, align 8
  %18 = load i32, ptr %17, align 4
  %19 = icmp ne i32 %18, 0
  tail call void @llvm.assume(i1 %19)
  %20 = add i32 %18, -1
  store i32 %20, ptr %17, align 4
  %.not21 = icmp eq i32 %20, 0
  br i1 %.not21, label %21, label %23

21:                                               ; preds = %16
  %22 = load ptr, ptr %0, align 8
  tail call void @rc_dtor_func(ptr noundef %22) #13
  br label %23

23:                                               ; preds = %10, %16, %21
  store ptr %11, ptr %0, align 8
  store i32 508, ptr %3, align 8
  br label %24

24:                                               ; preds = %2, %6, %23
  %.0 = phi i32 [ 0, %23 ], [ -1, %6 ], [ -1, %2 ]
  ret i32 %.0
}